target datalayout = "e-m:e-p270:32:32-p271:32:32-p272:64:64-i64:64-i128:128-f80:128-n8:16:32:64-S128"
target triple = "x86_64-pc-linux-gnu"

%"class.std::basic_ostream" = type { ptr, %"class.std::basic_ios" }
%"class.std::basic_ios" = type { %"class.std::ios_base", ptr, i8, i8, ptr, ptr, ptr, ptr }
%"class.std::ios_base" = type { ptr, i64, i64, i32, i32, i32, ptr, %"struct.std::ios_base::_Words", [8 x %"struct.std::ios_base::_Words"], i32, ptr, %"class.std::locale" }
%"struct.std::ios_base::_Words" = type { ptr, i64 }
%"class.std::locale" = type { ptr }
%struct.Options = type <{ i8, i8, i8, i8, i8, i8, i8, i8, i8, i8, i8, i8, i8, [3 x i8], i32, i8, [3 x i8], i32, i32, i8, i8, i8, i8, i8, [3 x i8] }>

@_ZSt4cout = external global %"class.std::basic_ostream", align 8
@.str.119 = private unnamed_addr constant [3 x i8] c"%c\00", align 1
@.str.120 = private unnamed_addr constant [5 x i8] c" %c \00", align 1
@.str.121 = private unnamed_addr constant [6 x i8] c"%02x \00", align 1

; Function Attrs: mustprogress uwtable
define available_externally noundef nonnull align 8 dereferenceable(8) ptr @_ZNSolsEPFRSoS_E(ptr noundef nonnull align 8 dereferenceable(8) %0, ptr noundef %1) #4 align 2 {
  %3 = alloca ptr, align 8
  %4 = alloca ptr, align 8
  store ptr %0, ptr %3, align 8, !tbaa !8
  store ptr %1, ptr %4, align 8, !tbaa !12
  %5 = load ptr, ptr %3, align 8
  %6 = load ptr, ptr %4, align 8, !tbaa !12
  %7 = call noundef nonnull align 8 dereferenceable(8) ptr %6(ptr noundef nonnull align 8 dereferenceable(8) %5)
  ret ptr %7
}

; Function Attrs: mustprogress uwtable
define void @_Z7showHexPKhmRK7Options(ptr noundef %0, i64 noundef %1, ptr noundef nonnull align 4 dereferenceable(37) %2) #4 {
  %4 = alloca ptr, align 8
  %5 = alloca i64, align 8
  %6 = alloca ptr, align 8
  %7 = alloca i64, align 8
  %8 = alloca i8, align 1
  store ptr %0, ptr %4, align 8, !tbaa !3
  store i64 %1, ptr %5, align 8, !tbaa !58
  store ptr %2, ptr %6, align 8, !tbaa !23
  call void @llvm.lifetime.start.p0(i64 8, ptr %7) #3
  store i64 0, ptr %7, align 8, !tbaa !58
  br label %9

9:                                                ; preds = %61, %3
  %10 = load i64, ptr %7, align 8, !tbaa !58
  %11 = load i64, ptr %5, align 8, !tbaa !58
  %12 = icmp ult i64 %10, %11
  br i1 %12, label %14, label %13

13:                                               ; preds = %9
  call void @llvm.lifetime.end.p0(i64 8, ptr %7) #3
  br label %64

14:                                               ; preds = %9
  call void @llvm.lifetime.start.p0(i64 1, ptr %8) #3
  %15 = load ptr, ptr %4, align 8, !tbaa !3
  %16 = load i64, ptr %7, align 8, !tbaa !58
  %17 = getelementptr inbounds nuw i8, ptr %15, i64 %16
  %18 = load i8, ptr %17, align 1, !tbaa !86
  store i8 %18, ptr %8, align 1, !tbaa !86
  %19 = load ptr, ptr %6, align 8, !tbaa !23
  %20 = getelementptr inbounds nuw %struct.Options, ptr %19, i32 0, i32 14
  %21 = load i32, ptr %20, align 4, !tbaa !192
  %22 = icmp eq i32 %21, 2
  br i1 %22, label %23, label %27

23:                                               ; preds = %14
  %24 = load i8, ptr %8, align 1, !tbaa !86
  %25 = zext i8 %24 to i32
  %26 = call i32 (ptr, ...) @printf(ptr noundef @.str.119, i32 noundef %25)
  br label %60

27:                                               ; preds = %14
  %28 = load i8, ptr %8, align 1, !tbaa !86
  %29 = zext i8 %28 to i32
  %30 = icmp sgt i32 %29, 32
  br i1 %30, label %31, label %44

31:                                               ; preds = %27
  %32 = load i8, ptr %8, align 1, !tbaa !86
  %33 = zext i8 %32 to i32
  %34 = icmp slt i32 %33, 127
  br i1 %34, label %35, label %44

35:                                               ; preds = %31
  %36 = load ptr, ptr %6, align 8, !tbaa !23
  %37 = getelementptr inbounds nuw %struct.Options, ptr %36, i32 0, i32 14
  %38 = load i32, ptr %37, align 4, !tbaa !192
  %39 = icmp eq i32 %38, 1
  br i1 %39, label %40, label %44

40:                                               ; preds = %35
  %41 = load i8, ptr %8, align 1, !tbaa !86
  %42 = zext i8 %41 to i32
  %43 = call i32 (ptr, ...) @printf(ptr noundef @.str.120, i32 noundef %42)
  br label %48

44:                                               ; preds = %35, %31, %27
  %45 = load i8, ptr %8, align 1, !tbaa !86
  %46 = zext i8 %45 to i32
  %47 = call i32 (ptr, ...) @printf(ptr noundef @.str.121, i32 noundef %46)
  br label %48

48:                                               ; preds = %44, %40
  %49 = load i64, ptr %7, align 8, !tbaa !58
  %50 = urem i64 %49, 32
  %51 = icmp eq i64 %50, 31
  br i1 %51, label %52, label %59

52:                                               ; preds = %48
  %53 = load i64, ptr %7, align 8, !tbaa !58
  %54 = add i64 %53, 1
  %55 = load i64, ptr %5, align 8, !tbaa !58
  %56 = icmp ne i64 %54, %55
  br i1 %56, label %57, label %59

57:                                               ; preds = %52
  %58 = call noundef nonnull align 8 dereferenceable(8) ptr @_ZNSolsEPFRSoS_E(ptr noundef nonnull align 8 dereferenceable(8) @_ZSt4cout, ptr noundef @_ZSt4endlIcSt11char_traitsIcEERSt13basic_ostreamIT_T0_ES6_)
  br label %59

59:                                               ; preds = %57, %52, %48
  br label %60

60:                                               ; preds = %59, %23
  call void @llvm.lifetime.end.p0(i64 1, ptr %8) #3
  br label %61

61:                                               ; preds = %60
  %62 = load i64, ptr %7, align 8, !tbaa !58
  %63 = add i64 %62, 1
  store i64 %63, ptr %7, align 8, !tbaa !58
  br label %9, !llvm.loop !193

64:                                               ; preds = %13
  %65 = load ptr, ptr %6, align 8, !tbaa !23
  %66 = getelementptr inbounds nuw %struct.Options, ptr %65, i32 0, i32 14
  %67 = load i32, ptr %66, align 4, !tbaa !192
  %68 = icmp ne i32 %67, 2
  br i1 %68, label %69, label %71

69:                                               ; preds = %64
  %70 = call noundef nonnull align 8 dereferenceable(8) ptr @_ZNSolsEPFRSoS_E(ptr noundef nonnull align 8 dereferenceable(8) @_ZSt4cout, ptr noundef @_ZSt4endlIcSt11char_traitsIcEERSt13basic_ostreamIT_T0_ES6_)
  br label %71

71:                                               ; preds = %69, %64
  ret void
}