; Function Attrs: mustprogress uwtable
define void @_Z7showHexPKhmRK7Options(ptr noundef readonly captures(none) %0, i64 noundef %1, ptr noundef nonnull readonly align 4 captures(none) dereferenceable(37) %2) local_unnamed_addr #3 {
  %.not29 = icmp eq i64 %1, 0
  br i1 %.not29, label %._crit_edge, label %.lr.ph

.lr.ph:                                           ; preds = %3
  %4 = getelementptr inbounds nuw i8, ptr %2, i64 16
  br label %7

._crit_edge:                                      ; preds = %39, %3
  %5 = getelementptr inbounds nuw i8, ptr %2, i64 16
  %6 = load i32, ptr %5, align 4, !tbaa !223
  %.not = icmp eq i32 %6, 2
  br i1 %.not, label %60, label %40

7:                                                ; preds = %.lr.ph, %39
  %.028 = phi i64 [ 0, %.lr.ph ], [ %.pre-phi, %39 ]
  %8 = getelementptr inbounds nuw i8, ptr %0, i64 %.028
  %9 = load i8, ptr %8, align 1, !tbaa !32
  %10 = load i32, ptr %4, align 4, !tbaa !223
  %11 = icmp eq i32 %10, 2
  %12 = zext i8 %9 to i32
  br i1 %11, label %13, label %14

13:                                               ; preds = %7
  %putchar = tail call i32 @putchar(i32 %12)
  %.pre = add nuw i64 %.028, 1
  br label %39

14:                                               ; preds = %7
  %15 = add i8 %9, -33
  %or.cond = icmp ult i8 %15, 94
  %16 = icmp eq i32 %10, 1
  %or.cond21 = and i1 %or.cond, %16
  %.str.120..str.121 = select i1 %or.cond21, ptr @.str.120, ptr @.str.121
  %17 = tail call i32 (ptr, ...) @printf(ptr noundef nonnull dereferenceable(1) %.str.120..str.121, i32 noundef %12)
  %18 = and i64 %.028, 31
  %19 = icmp ne i64 %18, 31
  %20 = add nuw i64 %.028, 1
  %.not20 = icmp eq i64 %20, %1
  %or.cond22 = or i1 %19, %.not20
  br i1 %or.cond22, label %39, label %21

21:                                               ; preds = %14
  %22 = load ptr, ptr @_ZSt4cout, align 8, !tbaa !3
  %23 = getelementptr i8, ptr %22, i64 -24
  %24 = load i64, ptr %23, align 8
  %gep = getelementptr i8, ptr getelementptr inbounds nuw (i8, ptr @_ZSt4cout, i64 240), i64 %24
  %25 = load ptr, ptr %gep, align 8, !tbaa !6
  %.not.i.i.i = icmp eq ptr %25, null
  br i1 %.not.i.i.i, label %26, label %_ZSt13__check_facetISt5ctypeIcEERKT_PS3_.exit.i.i

26:                                               ; preds = %21
  tail call void @_ZSt16__throw_bad_castv() #28
  unreachable

_ZSt13__check_facetISt5ctypeIcEERKT_PS3_.exit.i.i: ; preds = %21
  %27 = getelementptr inbounds nuw i8, ptr %25, i64 56
  %28 = load i8, ptr %27, align 8, !tbaa !26
  %.not.i1.i.i = icmp eq i8 %28, 0
  br i1 %.not.i1.i.i, label %32, label %29

29:                                               ; preds = %_ZSt13__check_facetISt5ctypeIcEERKT_PS3_.exit.i.i
  %30 = getelementptr inbounds nuw i8, ptr %25, i64 67
  %31 = load i8, ptr %30, align 1, !tbaa !32
  br label %_ZSt4endlIcSt11char_traitsIcEERSt13basic_ostreamIT_T0_ES6_.exit

32:                                               ; preds = %_ZSt13__check_facetISt5ctypeIcEERKT_PS3_.exit.i.i
  tail call void @_ZNKSt5ctypeIcE13_M_widen_initEv(ptr noundef nonnull align 8 dereferenceable(570) %25)
  %33 = load ptr, ptr %25, align 8, !tbaa !3
  %34 = getelementptr inbounds nuw i8, ptr %33, i64 48
  %35 = load ptr, ptr %34, align 8
  %36 = tail call noundef signext i8 %35(ptr noundef nonnull align 8 dereferenceable(570) %25, i8 noundef signext 10)
  br label %_ZSt4endlIcSt11char_traitsIcEERSt13basic_ostreamIT_T0_ES6_.exit

_ZSt4endlIcSt11char_traitsIcEERSt13basic_ostreamIT_T0_ES6_.exit: ; preds = %29, %32
  %.0.i.i.i = phi i8 [ %31, %29 ], [ %36, %32 ]
  %37 = tail call noundef nonnull align 8 dereferenceable(8) ptr @_ZNSo3putEc(ptr noundef nonnull align 8 dereferenceable(8) @_ZSt4cout, i8 noundef signext %.0.i.i.i)
  %38 = tail call noundef nonnull align 8 dereferenceable(8) ptr @_ZNSo5flushEv(ptr noundef nonnull align 8 dereferenceable(8) %37)
  br label %39

39:                                               ; preds = %14, %_ZSt4endlIcSt11char_traitsIcEERSt13basic_ostreamIT_T0_ES6_.exit, %13
  %.pre-phi = phi i64 [ %20, %14 ], [ %20, %_ZSt4endlIcSt11char_traitsIcEERSt13basic_ostreamIT_T0_ES6_.exit ], [ %.pre, %13 ]
  %exitcond.not = icmp eq i64 %.pre-phi, %1
  br i1 %exitcond.not, label %._crit_edge, label %7, !llvm.loop !224

40:                                               ; preds = %._crit_edge
  %41 = load ptr, ptr @_ZSt4cout, align 8, !tbaa !3
  %42 = getelementptr i8, ptr %41, i64 -24
  %43 = load i64, ptr %42, align 8
  %44 = getelementptr inbounds i8, ptr @_ZSt4cout, i64 %43
  %45 = getelementptr inbounds nuw i8, ptr %44, i64 240
  %46 = load ptr, ptr %45, align 8, !tbaa !6
  %.not.i.i.i23 = icmp eq ptr %46, null
  br i1 %.not.i.i.i23, label %47, label %_ZSt13__check_facetISt5ctypeIcEERKT_PS3_.exit.i.i24

47:                                               ; preds = %40
  tail call void @_ZSt16__throw_bad_castv() #28
  unreachable

_ZSt13__check_facetISt5ctypeIcEERKT_PS3_.exit.i.i24: ; preds = %40
  %48 = getelementptr inbounds nuw i8, ptr %46, i64 56
  %49 = load i8, ptr %48, align 8, !tbaa !26
  %.not.i1.i.i25 = icmp eq i8 %49, 0
  br i1 %.not.i1.i.i25, label %53, label %50

50:                                               ; preds = %_ZSt13__check_facetISt5ctypeIcEERKT_PS3_.exit.i.i24
  %51 = getelementptr inbounds nuw i8, ptr %46, i64 67
  %52 = load i8, ptr %51, align 1, !tbaa !32
  br label %_ZSt4endlIcSt11char_traitsIcEERSt13basic_ostreamIT_T0_ES6_.exit27

53:                                               ; preds = %_ZSt13__check_facetISt5ctypeIcEERKT_PS3_.exit.i.i24
  tail call void @_ZNKSt5ctypeIcE13_M_widen_initEv(ptr noundef nonnull align 8 dereferenceable(570) %46)
  %54 = load ptr, ptr %46, align 8, !tbaa !3
  %55 = getelementptr inbounds nuw i8, ptr %54, i64 48
  %56 = load ptr, ptr %55, align 8
  %57 = tail call noundef signext i8 %56(ptr noundef nonnull align 8 dereferenceable(570) %46, i8 noundef signext 10)
  br label %_ZSt4endlIcSt11char_traitsIcEERSt13basic_ostreamIT_T0_ES6_.exit27

_ZSt4endlIcSt11char_traitsIcEERSt13basic_ostreamIT_T0_ES6_.exit27: ; preds = %50, %53
  %.0.i.i.i26 = phi i8 [ %52, %50 ], [ %57, %53 ]
  %58 = tail call noundef nonnull align 8 dereferenceable(8) ptr @_ZNSo3putEc(ptr noundef nonnull align 8 dereferenceable(8) @_ZSt4cout, i8 noundef signext %.0.i.i.i26)
  %59 = tail call noundef nonnull align 8 dereferenceable(8) ptr @_ZNSo5flushEv(ptr noundef nonnull align 8 dereferenceable(8) %58)
  br label %60

60:                                               ; preds = %_ZSt4endlIcSt11char_traitsIcEERSt13basic_ostreamIT_T0_ES6_.exit27, %._crit_edge
  ret void
}